; Function Attrs: mustprogress uwtable
define noundef zeroext i1 @_ZN3zmq12wss_engine_t12do_handshakeEv(ptr noundef nonnull align 8 dereferenceable(25720) %0) local_unnamed_addr #0 align 2 {
  %2 = getelementptr inbounds nuw i8, ptr %0, i64 25712
  %3 = load ptr, ptr %2, align 8, !tbaa !82
  %4 = tail call i32 @gnutls_handshake(ptr noundef %3)
  %5 = getelementptr inbounds nuw i8, ptr %0, i64 1584
  %6 = load ptr, ptr %5, align 8, !tbaa !84
  tail call void @_ZN3zmq11io_object_t13reset_polloutEPv(ptr noundef nonnull align 8 dereferenceable(1689) %0, ptr noundef %6)
  switch i32 %4, label %15 [
    i32 0, label %7
    i32 -28, label %9
    i32 -16, label %19
    i32 -52, label %19
  ]

7:                                                ; preds = %1
  tail call void @_ZN3zmq11ws_engine_t18start_ws_handshakeEv(ptr noundef nonnull align 8 dereferenceable(25696) %0)
  %8 = getelementptr inbounds nuw i8, ptr %0, i64 25696
  store i8 1, ptr %8, align 8, !tbaa !6
  br label %19

9:                                                ; preds = %1
  %10 = load ptr, ptr %2, align 8, !tbaa !82
  %11 = tail call i32 @gnutls_record_get_direction(ptr noundef %10)
  %12 = icmp eq i32 %11, 1
  br i1 %12, label %13, label %19

13:                                               ; preds = %9
  %14 = load ptr, ptr %5, align 8, !tbaa !84
  tail call void @_ZN3zmq11io_object_t11set_polloutEPv(ptr noundef nonnull align 8 dereferenceable(1689) %0, ptr noundef %14)
  br label %19

15:                                               ; preds = %1
  %16 = load ptr, ptr %0, align 8, !tbaa !3
  %17 = getelementptr inbounds nuw i8, ptr %16, i64 96
  %18 = load ptr, ptr %17, align 8
  tail call void %18(ptr noundef nonnull align 8 dereferenceable(1689) %0, i32 noundef 1)
  br label %19

19:                                               ; preds = %1, %1, %9, %13, %15, %7
  ret i1 false
}